; Function Attrs: nounwind uwtable
define hidden range(i64 0, 4294967296) i64 @BrotliHistogramReindexCommand(ptr noundef %m, ptr noundef captures(none) %out, ptr noundef captures(none) %symbols, i64 noundef %length) local_unnamed_addr #0 {
entry:
  %cmp.not = icmp eq i64 %length, 0
  br i1 %cmp.not, label %for.end45.thread, label %for.body4.preheader

for.end45.thread:                                 ; preds = %entry
  tail call void @BrotliFree(ptr noundef %m, ptr noundef null) #7
  br label %for.end55

for.body4.preheader:                              ; preds = %entry
  %mul = shl i64 %length, 2
  %call = tail call ptr @BrotliAllocate(ptr noundef %m, i64 noundef %mul) #7
  %0 = shl nuw i64 %length, 2
  tail call void @llvm.memset.p0.i64(ptr align 4 %call, i8 -1, i64 %0, i1 false)
  br label %for.body4

for.body4:                                        ; preds = %for.body4.preheader, %for.inc12
  %i.149 = phi i64 [ %inc13, %for.inc12 ], [ 0, %for.body4.preheader ]
  %next_index.048 = phi i32 [ %next_index.1, %for.inc12 ], [ 0, %for.body4.preheader ]
  %arrayidx5 = getelementptr inbounds i32, ptr %symbols, i64 %i.149
  %1 = load i32, ptr %arrayidx5, align 4
  %idxprom = zext i32 %1 to i64
  %arrayidx6 = getelementptr inbounds nuw i32, ptr %call, i64 %idxprom
  %2 = load i32, ptr %arrayidx6, align 4
  %cmp7 = icmp eq i32 %2, -1
  br i1 %cmp7, label %if.then, label %for.inc12

if.then:                                          ; preds = %for.body4
  store i32 %next_index.048, ptr %arrayidx6, align 4
  %inc11 = add i32 %next_index.048, 1
  br label %for.inc12

for.inc12:                                        ; preds = %for.body4, %if.then
  %next_index.1 = phi i32 [ %inc11, %if.then ], [ %next_index.048, %for.body4 ]
  %inc13 = add nuw i64 %i.149, 1
  %exitcond.not = icmp eq i64 %inc13, %length
  br i1 %exitcond.not, label %for.end14, label %for.body4, !llvm.loop !40

for.end14:                                        ; preds = %for.inc12
  %cmp15.not = icmp eq i32 %next_index.1, 0
  br i1 %cmp15.not, label %for.body25.preheader, label %cond.true16

cond.true16:                                      ; preds = %for.end14
  %conv = zext i32 %next_index.1 to i64
  %mul17 = mul nuw nsw i64 %conv, 2832
  %call18 = tail call ptr @BrotliAllocate(ptr noundef %m, i64 noundef %mul17) #7
  br label %for.body25.preheader

for.body25.preheader:                             ; preds = %for.end14, %cond.true16
  %cond21.ph = phi ptr [ null, %for.end14 ], [ %call18, %cond.true16 ]
  br label %for.body25

for.body25:                                       ; preds = %for.body25.preheader, %if.end38
  %i.252 = phi i64 [ %inc44, %if.end38 ], [ 0, %for.body25.preheader ]
  %next_index.251 = phi i32 [ %next_index.3, %if.end38 ], [ 0, %for.body25.preheader ]
  %arrayidx26 = getelementptr inbounds i32, ptr %symbols, i64 %i.252
  %3 = load i32, ptr %arrayidx26, align 4
  %idxprom27 = zext i32 %3 to i64
  %arrayidx28 = getelementptr inbounds nuw i32, ptr %call, i64 %idxprom27
  %4 = load i32, ptr %arrayidx28, align 4
  %cmp29 = icmp eq i32 %4, %next_index.251
  br i1 %cmp29, label %if.then31, label %if.end38

if.then31:                                        ; preds = %for.body25
  %idxprom32 = zext i32 %next_index.251 to i64
  %arrayidx33 = getelementptr inbounds nuw %struct.HistogramCommand, ptr %cond21.ph, i64 %idxprom32
  %arrayidx36 = getelementptr inbounds nuw %struct.HistogramCommand, ptr %out, i64 %idxprom27
  tail call void @llvm.memcpy.p0.p0.i64(ptr noundef nonnull align 8 dereferenceable(2832) %arrayidx33, ptr noundef nonnull align 8 dereferenceable(2832) %arrayidx36, i64 2832, i1 false)
  %inc37 = add i32 %next_index.251, 1
  %.pre = load i32, ptr %arrayidx26, align 4
  %idxprom40.phi.trans.insert = zext i32 %.pre to i64
  %arrayidx41.phi.trans.insert = getelementptr inbounds nuw i32, ptr %call, i64 %idxprom40.phi.trans.insert
  %.pre59 = load i32, ptr %arrayidx41.phi.trans.insert, align 4
  br label %if.end38

if.end38:                                         ; preds = %if.then31, %for.body25
  %5 = phi i32 [ %.pre59, %if.then31 ], [ %4, %for.body25 ]
  %next_index.3 = phi i32 [ %inc37, %if.then31 ], [ %next_index.251, %for.body25 ]
  store i32 %5, ptr %arrayidx26, align 4
  %inc44 = add nuw i64 %i.252, 1
  %exitcond57.not = icmp eq i64 %inc44, %length
  br i1 %exitcond57.not, label %for.end45, label %for.body25, !llvm.loop !41

for.end45:                                        ; preds = %if.end38
  tail call void @BrotliFree(ptr noundef %m, ptr noundef nonnull %call) #7
  %conv47 = zext i32 %next_index.3 to i64
  %cmp4854.not = icmp eq i32 %next_index.3, 0
  br i1 %cmp4854.not, label %for.end55, label %for.body50

for.body50:                                       ; preds = %for.end45, %for.body50
  %i.355 = phi i64 [ %inc54, %for.body50 ], [ 0, %for.end45 ]
  %arrayidx51 = getelementptr inbounds nuw %struct.HistogramCommand, ptr %out, i64 %i.355
  %arrayidx52 = getelementptr inbounds nuw %struct.HistogramCommand, ptr %cond21.ph, i64 %i.355
  tail call void @llvm.memcpy.p0.p0.i64(ptr noundef nonnull align 8 dereferenceable(2832) %arrayidx51, ptr noundef nonnull align 8 dereferenceable(2832) %arrayidx52, i64 2832, i1 false)
  %inc54 = add nuw nsw i64 %i.355, 1
  %exitcond58.not = icmp eq i64 %inc54, %conv47
  br i1 %exitcond58.not, label %for.end55, label %for.body50, !llvm.loop !42

for.end55:                                        ; preds = %for.body50, %for.end45.thread, %for.end45
  %conv4780 = phi i64 [ 0, %for.end45.thread ], [ 0, %for.end45 ], [ %conv47, %for.body50 ]
  %cond217379 = phi ptr [ null, %for.end45.thread ], [ %cond21.ph, %for.end45 ], [ %cond21.ph, %for.body50 ]
  tail call void @BrotliFree(ptr noundef %m, ptr noundef %cond217379) #7
  ret i64 %conv4780
}